c__builtin__
set
p0
((lp1
Vessay
p2
aVexclusive
p3
aVsf.racked
p4
aVgdc-
p5
aVsbnation
p6
aVverge-detours
p7
aVfeatures
p8
aVweb
p9
aVtv
p10
aVverge-update
p11
aVnational-security
p12
aV-seconds-on-the-verge
p13
aVthe-verge-playlist
p14
aVpolicy
p15
aVphoto-essay
p16
aVsxsw-
p17
aVapple-watch-spring-event-
p18
aVphotography
p19
aVthephinsider
p20
aVvideo-vergecast
p21
aVreport
p22
aVthe-vergecast
p23
aVnfl
p24
aVblackberry
p25
aVgoogle
p26
aVdoes-it-hold-up
p27
aVblack-friday
p28
aVculture
p29
aVmeta
p30
aVdesign
p31
aVfirst-click
p32
aVop-ed
p33
aVmwc-
p34
aVturfshowtimes
p35
aVentertainment
p36
aVreview
p37
aVfront-page
p38
aVmwcconnection
p39
aVtop-shelf
p40
aVwatch-this
p41
aVmmafighting
p42
aVarchitecture
p43
aVe-
p44
aVtransportation
p45
aVbusiness
p46
aVannouncement
p47
aVtv-reviews
p48
aVcyber-monday
p49
aVracked
p50
aVgarnetandblackattack
p51
aVgood-deals
p52
aVcolumn
p53
aVgames-review
p54
aVces-
p55
aVvideo-top-shelf
p56
aVapple
p57
aVverge-hack-week-
p58
aVsmall-empires
p59
aVpoll
p60
aVapps
p61
aV-minutes-on-the-verge
p62
aVmusic-review
p63
aVwhatstech
p64
aVlive
p65
aVmusic
p66
aVthe-big-future
p67
aVpreview
p68
aVmccoveychronicles
p69
aVstorystream
p70
aVus-world
p71
aVpodcast
p72
aVcomics
p73
aVscience
p74
aVtypography
p75
aVlongform
p76
aVeditorial
p77
aVconcepts
p78
aVvideo
p79
aVAdditional Placements
p80
aVvideos
p81
aVbest-new-apps
p82
aVpolitics
p83
aVvox
p84
aVfilm
p85
aVStory Streams
p86
aVpolygon
p87
aVbigblueview
p88
aVplay-this
p89
aVbreaking
p90
aVmovie-reviews
p91
aVbook-review
p92
aVsdcc-
p93
aVinterview
p94
aVtech
p95
aVgaming
p96
aVfeatured-video
p97
aVeater
p98
aVbadlefthook
p99
aVlong-reads
p100
aVclose-up
p101
aVthis-is-my-next
p102
aVweekender
p103
aVmobile
p104
aVmicrosoft
p105
aVcagesideseats
p106
aVhands--on
p107
aVtldr
p108
aVhd-home
p109
atp110
Rp111
.